target datalayout = "e-m:e-p270:32:32-p271:32:32-p272:64:64-i64:64-i128:128-f80:128-n8:16:32:64-S128"
target triple = "x86_64-pc-linux-gnu"

%struct.expert_field = type { i32, i32 }

@hf_ecmp_number_of_parameter_responses = internal global i32 0, align 4
@hf_ecmp_parameter_status = internal global i32 0, align 4
@hf_ecmp_data_type = internal global i32 0, align 4
@hf_ecmp_info_type = internal global i32 0, align 4
@hf_ecmp_no_information_available = internal global i32 0, align 4
@hf_ecmp_string_id = internal global i32 0, align 4
@hf_ecmp_min_param_menu = internal global i32 0, align 4
@hf_ecmp_max_param_menu = internal global i32 0, align 4
@ett_ecmp_command = internal global i32 0, align 4
@ett_ecmp_param_address = internal global i32 0, align 4
@ei_ecmp_info_type = internal global %struct.expert_field zeroinitializer, align 4
@.str.655 = private unnamed_addr constant [13 x i8] c"Response %d:\00", align 1

; Function Attrs: null_pointer_is_valid sspstrong uwtable
define internal void @get_object_info_response(ptr noundef %0, i32 noundef %1, ptr noundef %2, ptr noundef %3) #0 {
  %5 = alloca ptr, align 8
  %6 = alloca i32, align 4
  %7 = alloca ptr, align 8
  %8 = alloca ptr, align 8
  %9 = alloca ptr, align 8
  %10 = alloca ptr, align 8
  %11 = alloca ptr, align 8
  %12 = alloca i8, align 1
  %13 = alloca i8, align 1
  %14 = alloca i8, align 1
  %15 = alloca i8, align 1
  %16 = alloca i16, align 2
  %17 = alloca i8, align 1
  store ptr %0, ptr %5, align 8
  store i32 %1, ptr %6, align 4
  store ptr %2, ptr %7, align 8
  store ptr %3, ptr %8, align 8
  call void @llvm.lifetime.start.p0(i64 8, ptr %9) #3
  store ptr null, ptr %9, align 8
  call void @llvm.lifetime.start.p0(i64 8, ptr %10) #3
  store ptr null, ptr %10, align 8
  call void @llvm.lifetime.start.p0(i64 8, ptr %11) #3
  store ptr null, ptr %11, align 8
  call void @llvm.lifetime.start.p0(i64 1, ptr %12) #3
  store i8 0, ptr %12, align 1
  call void @llvm.lifetime.start.p0(i64 1, ptr %13) #3
  store i8 0, ptr %13, align 1
  call void @llvm.lifetime.start.p0(i64 1, ptr %14) #3
  store i8 0, ptr %14, align 1
  call void @llvm.lifetime.start.p0(i64 1, ptr %15) #3
  store i8 0, ptr %15, align 1
  call void @llvm.lifetime.start.p0(i64 2, ptr %16) #3
  store i16 0, ptr %16, align 2
  call void @llvm.lifetime.start.p0(i64 1, ptr %17) #3
  store i8 0, ptr %17, align 1
  %18 = load ptr, ptr %7, align 8
  %19 = call i32 @tvb_reported_length(ptr noundef %18)
  %20 = trunc i32 %19 to i16
  store i16 %20, ptr %16, align 2
  %21 = load ptr, ptr %8, align 8
  %22 = load i32, ptr @hf_ecmp_number_of_parameter_responses, align 4
  %23 = load ptr, ptr %7, align 8
  %24 = load i32, ptr %6, align 4
  %25 = call ptr @proto_tree_add_item(ptr noundef %21, i32 noundef %22, ptr noundef %23, i32 noundef %24, i32 noundef 1, i32 noundef 0)
  store ptr %25, ptr %9, align 8
  %26 = load ptr, ptr %9, align 8
  %27 = load i32, ptr @ett_ecmp_param_address, align 4
  %28 = call ptr @proto_item_add_subtree(ptr noundef %26, i32 noundef %27)
  store ptr %28, ptr %10, align 8
  %29 = load ptr, ptr %7, align 8
  %30 = load i32, ptr %6, align 4
  %31 = call zeroext i8 @tvb_get_uint8(ptr noundef %29, i32 noundef %30)
  store i8 %31, ptr %12, align 1
  %32 = load i8, ptr %12, align 1
  %33 = zext i8 %32 to i32
  %34 = icmp eq i32 %33, 0
  br i1 %34, label %35, label %43

35:                                               ; preds = %4
  %36 = load i32, ptr %6, align 4
  %37 = add i32 %36, 1
  store i32 %37, ptr %6, align 4
  %38 = load ptr, ptr %10, align 8
  %39 = load i32, ptr @hf_ecmp_parameter_status, align 4
  %40 = load ptr, ptr %7, align 8
  %41 = load i32, ptr %6, align 4
  %42 = call ptr @proto_tree_add_item(ptr noundef %38, i32 noundef %39, ptr noundef %40, i32 noundef %41, i32 noundef 1, i32 noundef 0)
  br label %192

43:                                               ; preds = %4
  store i8 0, ptr %13, align 1
  br label %44

44:                                               ; preds = %188, %43
  %45 = load i8, ptr %13, align 1
  %46 = zext i8 %45 to i32
  %47 = load i8, ptr %12, align 1
  %48 = zext i8 %47 to i32
  %49 = icmp slt i32 %46, %48
  br i1 %49, label %50, label %191

50:                                               ; preds = %44
  %51 = load i8, ptr %13, align 1
  %52 = zext i8 %51 to i32
  %53 = icmp eq i32 %52, 0
  br i1 %53, label %54, label %63

54:                                               ; preds = %50
  %55 = load i16, ptr %16, align 2
  %56 = zext i16 %55 to i32
  %57 = load i32, ptr %6, align 4
  %58 = sub i32 %56, %57
  %59 = load i8, ptr %12, align 1
  %60 = zext i8 %59 to i32
  %61 = sdiv i32 %58, %60
  %62 = trunc i32 %61 to i8
  store i8 %62, ptr %14, align 1
  br label %63

63:                                               ; preds = %54, %50
  %64 = load i32, ptr %6, align 4
  %65 = add i32 %64, 1
  store i32 %65, ptr %6, align 4
  %66 = load ptr, ptr %10, align 8
  %67 = load ptr, ptr %7, align 8
  %68 = load i32, ptr %6, align 4
  %69 = load i8, ptr %14, align 1
  %70 = zext i8 %69 to i32
  %71 = load i32, ptr @ett_ecmp_command, align 4
  %72 = load i8, ptr %13, align 1
  %73 = zext i8 %72 to i32
  %74 = add i32 %73, 1
  %75 = call ptr (ptr, ptr, i32, i32, i32, ptr, ptr, ...) @proto_tree_add_subtree_format(ptr noundef %66, ptr noundef %67, i32 noundef %68, i32 noundef %70, i32 noundef %71, ptr noundef null, ptr noundef @.str.655, i32 noundef %74)
  %76 = load ptr, ptr %11, align 8
  %77 = load i32, ptr @hf_ecmp_parameter_status, align 4
  %78 = load ptr, ptr %7, align 8
  %79 = load i32, ptr %6, align 4
  %80 = call ptr @proto_tree_add_item(ptr noundef %76, i32 noundef %77, ptr noundef %78, i32 noundef %79, i32 noundef 1, i32 noundef 0)
  %81 = load i32, ptr %6, align 4
  %82 = add i32 %81, 1
  store i32 %82, ptr %6, align 4
  %83 = load ptr, ptr %11, align 8
  %84 = load i32, ptr @hf_ecmp_info_type, align 4
  %85 = load ptr, ptr %7, align 8
  %86 = load i32, ptr %6, align 4
  %87 = call ptr @proto_tree_add_item(ptr noundef %83, i32 noundef %84, ptr noundef %85, i32 noundef %86, i32 noundef 1, i32 noundef 0)
  %88 = load ptr, ptr %7, align 8
  %89 = load i32, ptr %6, align 4
  %90 = call zeroext i8 @tvb_get_uint8(ptr noundef %88, i32 noundef %89)
  store i8 %90, ptr %15, align 1
  %91 = load i8, ptr %15, align 1
  %92 = zext i8 %91 to i32
  switch i32 %92, label %183 [
    i32 0, label %93
    i32 1, label %99
    i32 2, label %109
    i32 3, label %119
    i32 4, label %127
    i32 5, label %146
    i32 6, label %165
    i32 7, label %175
  ]

93:                                               ; preds = %63
  %94 = load ptr, ptr %11, align 8
  %95 = load i32, ptr @hf_ecmp_no_information_available, align 4
  %96 = load ptr, ptr %7, align 8
  %97 = load i32, ptr %6, align 4
  %98 = call ptr @proto_tree_add_item(ptr noundef %94, i32 noundef %95, ptr noundef %96, i32 noundef %97, i32 noundef 1, i32 noundef 0)
  br label %187

99:                                               ; preds = %63
  %100 = load i32, ptr %6, align 4
  %101 = add i32 %100, 1
  store i32 %101, ptr %6, align 4
  %102 = load ptr, ptr %11, align 8
  %103 = load i32, ptr @hf_ecmp_min_param_menu, align 4
  %104 = load ptr, ptr %7, align 8
  %105 = load i32, ptr %6, align 4
  %106 = call ptr @proto_tree_add_item(ptr noundef %102, i32 noundef %103, ptr noundef %104, i32 noundef %105, i32 noundef 2, i32 noundef 0)
  %107 = load i32, ptr %6, align 4
  %108 = add i32 %107, 1
  store i32 %108, ptr %6, align 4
  br label %187

109:                                              ; preds = %63
  %110 = load i32, ptr %6, align 4
  %111 = add i32 %110, 1
  store i32 %111, ptr %6, align 4
  %112 = load ptr, ptr %11, align 8
  %113 = load i32, ptr @hf_ecmp_max_param_menu, align 4
  %114 = load ptr, ptr %7, align 8
  %115 = load i32, ptr %6, align 4
  %116 = call ptr @proto_tree_add_item(ptr noundef %112, i32 noundef %113, ptr noundef %114, i32 noundef %115, i32 noundef 2, i32 noundef 0)
  %117 = load i32, ptr %6, align 4
  %118 = add i32 %117, 1
  store i32 %118, ptr %6, align 4
  br label %187

119:                                              ; preds = %63
  %120 = load i32, ptr %6, align 4
  %121 = add i32 %120, 1
  store i32 %121, ptr %6, align 4
  %122 = load ptr, ptr %11, align 8
  %123 = load ptr, ptr %7, align 8
  %124 = load i32, ptr %6, align 4
  call void @proto_tree_add_bitmask_list(ptr noundef %122, ptr noundef %123, i32 noundef %124, i32 noundef 4, ptr noundef @get_object_info_response.fields, i32 noundef 0)
  %125 = load i32, ptr %6, align 4
  %126 = add i32 %125, 3
  store i32 %126, ptr %6, align 4
  br label %187

127:                                              ; preds = %63
  %128 = load i32, ptr %6, align 4
  %129 = add i32 %128, 1
  store i32 %129, ptr %6, align 4
  %130 = load ptr, ptr %7, align 8
  %131 = load i32, ptr %6, align 4
  %132 = call zeroext i8 @tvb_get_uint8(ptr noundef %130, i32 noundef %131)
  store i8 %132, ptr %17, align 1
  %133 = load ptr, ptr %11, align 8
  %134 = load i32, ptr @hf_ecmp_data_type, align 4
  %135 = load ptr, ptr %7, align 8
  %136 = load i32, ptr %6, align 4
  %137 = call ptr @proto_tree_add_item(ptr noundef %133, i32 noundef %134, ptr noundef %135, i32 noundef %136, i32 noundef 1, i32 noundef 0)
  store ptr %137, ptr %9, align 8
  %138 = load i32, ptr %6, align 4
  %139 = add i32 %138, 1
  store i32 %139, ptr %6, align 4
  %140 = load ptr, ptr %5, align 8
  %141 = load i32, ptr %6, align 4
  %142 = load i8, ptr %17, align 1
  %143 = load ptr, ptr %7, align 8
  %144 = load ptr, ptr %11, align 8
  %145 = call i32 @get_data_type(ptr noundef %140, i32 noundef %141, i8 noundef zeroext %142, ptr noundef %143, ptr noundef %144)
  store i32 %145, ptr %6, align 4
  br label %187

146:                                              ; preds = %63
  %147 = load i32, ptr %6, align 4
  %148 = add i32 %147, 1
  store i32 %148, ptr %6, align 4
  %149 = load ptr, ptr %7, align 8
  %150 = load i32, ptr %6, align 4
  %151 = call zeroext i8 @tvb_get_uint8(ptr noundef %149, i32 noundef %150)
  store i8 %151, ptr %17, align 1
  %152 = load ptr, ptr %11, align 8
  %153 = load i32, ptr @hf_ecmp_data_type, align 4
  %154 = load ptr, ptr %7, align 8
  %155 = load i32, ptr %6, align 4
  %156 = call ptr @proto_tree_add_item(ptr noundef %152, i32 noundef %153, ptr noundef %154, i32 noundef %155, i32 noundef 1, i32 noundef 0)
  store ptr %156, ptr %9, align 8
  %157 = load i32, ptr %6, align 4
  %158 = add i32 %157, 1
  store i32 %158, ptr %6, align 4
  %159 = load ptr, ptr %5, align 8
  %160 = load i32, ptr %6, align 4
  %161 = load i8, ptr %17, align 1
  %162 = load ptr, ptr %7, align 8
  %163 = load ptr, ptr %11, align 8
  %164 = call i32 @get_data_type(ptr noundef %159, i32 noundef %160, i8 noundef zeroext %161, ptr noundef %162, ptr noundef %163)
  store i32 %164, ptr %6, align 4
  br label %187

165:                                              ; preds = %63
  %166 = load i32, ptr %6, align 4
  %167 = add i32 %166, 1
  store i32 %167, ptr %6, align 4
  %168 = load ptr, ptr %11, align 8
  %169 = load i32, ptr @hf_ecmp_string_id, align 4
  %170 = load ptr, ptr %7, align 8
  %171 = load i32, ptr %6, align 4
  %172 = call ptr @proto_tree_add_item(ptr noundef %168, i32 noundef %169, ptr noundef %170, i32 noundef %171, i32 noundef 2, i32 noundef 0)
  %173 = load i32, ptr %6, align 4
  %174 = add i32 %173, 1
  store i32 %174, ptr %6, align 4
  br label %187

175:                                              ; preds = %63
  %176 = load i32, ptr %6, align 4
  %177 = add i32 %176, 1
  store i32 %177, ptr %6, align 4
  %178 = load ptr, ptr %11, align 8
  %179 = load i32, ptr @hf_ecmp_data_type, align 4
  %180 = load ptr, ptr %7, align 8
  %181 = load i32, ptr %6, align 4
  %182 = call ptr @proto_tree_add_item(ptr noundef %178, i32 noundef %179, ptr noundef %180, i32 noundef %181, i32 noundef 1, i32 noundef 0)
  store ptr %182, ptr %9, align 8
  br label %187

183:                                              ; preds = %63
  %184 = load ptr, ptr %5, align 8
  %185 = load ptr, ptr %9, align 8
  %186 = call ptr @expert_add_info(ptr noundef %184, ptr noundef %185, ptr noundef @ei_ecmp_info_type)
  br label %187

187:                                              ; preds = %183, %175, %165, %146, %127, %119, %109, %99, %93
  br label %188

188:                                              ; preds = %187
  %189 = load i8, ptr %13, align 1
  %190 = add i8 %189, 1
  store i8 %190, ptr %13, align 1
  br label %44, !llvm.loop !24

191:                                              ; preds = %44
  br label %192

192:                                              ; preds = %191, %35
  call void @llvm.lifetime.end.p0(i64 1, ptr %17) #3
  call void @llvm.lifetime.end.p0(i64 2, ptr %16) #3
  call void @llvm.lifetime.end.p0(i64 1, ptr %15) #3
  call void @llvm.lifetime.end.p0(i64 1, ptr %14) #3
  call void @llvm.lifetime.end.p0(i64 1, ptr %13) #3
  call void @llvm.lifetime.end.p0(i64 1, ptr %12) #3
  call void @llvm.lifetime.end.p0(i64 8, ptr %11) #3
  call void @llvm.lifetime.end.p0(i64 8, ptr %10) #3
  call void @llvm.lifetime.end.p0(i64 8, ptr %9) #3
  ret void
}