; Function Attrs: null_pointer_is_valid sspstrong uwtable
define internal fastcc void @get_object_info_response(ptr noundef %0, i32 noundef %1, ptr noundef %2, ptr noundef %3) unnamed_addr #0 {
  %5 = tail call i32 @tvb_reported_length(ptr noundef %2)
  %6 = load i32, ptr @hf_ecmp_number_of_parameter_responses, align 4
  %7 = tail call ptr @proto_tree_add_item(ptr noundef %3, i32 noundef %6, ptr noundef %2, i32 noundef %1, i32 noundef 1, i32 noundef 0)
  %8 = load i32, ptr @ett_ecmp_param_address, align 4
  %9 = tail call ptr @proto_item_add_subtree(ptr noundef %7, i32 noundef %8)
  %10 = tail call zeroext i8 @tvb_get_uint8(ptr noundef %2, i32 noundef %1)
  %11 = zext i8 %10 to i32
  %12 = icmp eq i8 %10, 0
  br i1 %12, label %14, label %.preheader

.preheader:                                       ; preds = %4
  %13 = and i32 %5, 65535
  br label %18

14:                                               ; preds = %4
  %15 = add i32 %1, 1
  %16 = load i32, ptr @hf_ecmp_parameter_status, align 4
  %17 = tail call ptr @proto_tree_add_item(ptr noundef %9, i32 noundef %16, ptr noundef %2, i32 noundef %15, i32 noundef 1, i32 noundef 0)
  br label %.loopexit

18:                                               ; preds = %.preheader, %77
  %indvars.iv = phi i32 [ 0, %.preheader ], [ %28, %77 ]
  %.097 = phi i8 [ 0, %.preheader ], [ %.1, %77 ]
  %.08895 = phi i32 [ %1, %.preheader ], [ %.189, %77 ]
  %.09094 = phi ptr [ %7, %.preheader ], [ %.191, %77 ]
  %19 = icmp eq i32 %indvars.iv, 0
  br i1 %19, label %20, label %24

20:                                               ; preds = %18
  %21 = sub i32 %13, %.08895
  %22 = sdiv i32 %21, %11
  %23 = trunc i32 %22 to i8
  br label %24

24:                                               ; preds = %20, %18
  %.1 = phi i8 [ %23, %20 ], [ %.097, %18 ]
  %25 = add i32 %.08895, 1
  %26 = zext i8 %.1 to i32
  %27 = load i32, ptr @ett_ecmp_command, align 4
  %28 = add nuw nsw i32 %indvars.iv, 1
  %29 = tail call ptr (ptr, ptr, i32, i32, i32, ptr, ptr, ...) @proto_tree_add_subtree_format(ptr noundef %9, ptr noundef %2, i32 noundef %25, i32 noundef %26, i32 noundef %27, ptr noundef null, ptr noundef nonnull @.str.655, i32 noundef %28)
  %30 = load i32, ptr @hf_ecmp_parameter_status, align 4
  %31 = tail call ptr @proto_tree_add_item(ptr noundef null, i32 noundef %30, ptr noundef %2, i32 noundef %25, i32 noundef 1, i32 noundef 0)
  %32 = add i32 %.08895, 2
  %33 = load i32, ptr @hf_ecmp_info_type, align 4
  %34 = tail call ptr @proto_tree_add_item(ptr noundef null, i32 noundef %33, ptr noundef %2, i32 noundef %32, i32 noundef 1, i32 noundef 0)
  %35 = tail call zeroext i8 @tvb_get_uint8(ptr noundef %2, i32 noundef %32)
  switch i8 %35, label %75 [
    i8 0, label %36
    i8 1, label %39
    i8 2, label %44
    i8 3, label %49
    i8 4, label %52
    i8 5, label %59
    i8 6, label %66
    i8 7, label %71
  ]

36:                                               ; preds = %24
  %37 = load i32, ptr @hf_ecmp_no_information_available, align 4
  %38 = tail call ptr @proto_tree_add_item(ptr noundef null, i32 noundef %37, ptr noundef %2, i32 noundef %32, i32 noundef 1, i32 noundef 0)
  br label %77

39:                                               ; preds = %24
  %40 = add i32 %.08895, 3
  %41 = load i32, ptr @hf_ecmp_min_param_menu, align 4
  %42 = tail call ptr @proto_tree_add_item(ptr noundef null, i32 noundef %41, ptr noundef %2, i32 noundef %40, i32 noundef 2, i32 noundef 0)
  %43 = add i32 %.08895, 4
  br label %77

44:                                               ; preds = %24
  %45 = add i32 %.08895, 3
  %46 = load i32, ptr @hf_ecmp_max_param_menu, align 4
  %47 = tail call ptr @proto_tree_add_item(ptr noundef null, i32 noundef %46, ptr noundef %2, i32 noundef %45, i32 noundef 2, i32 noundef 0)
  %48 = add i32 %.08895, 4
  br label %77

49:                                               ; preds = %24
  %50 = add i32 %.08895, 3
  tail call void @proto_tree_add_bitmask_list(ptr noundef null, ptr noundef %2, i32 noundef %50, i32 noundef 4, ptr noundef nonnull @get_object_info_response.fields, i32 noundef 0)
  %51 = add i32 %.08895, 6
  br label %77

52:                                               ; preds = %24
  %53 = add i32 %.08895, 3
  %54 = tail call zeroext i8 @tvb_get_uint8(ptr noundef %2, i32 noundef %53)
  %55 = load i32, ptr @hf_ecmp_data_type, align 4
  %56 = tail call ptr @proto_tree_add_item(ptr noundef null, i32 noundef %55, ptr noundef %2, i32 noundef %53, i32 noundef 1, i32 noundef 0)
  %57 = add i32 %.08895, 4
  %58 = tail call fastcc i32 @get_data_type(ptr noundef %0, i32 noundef %57, i8 noundef zeroext %54, ptr noundef %2, ptr noundef null)
  br label %77

59:                                               ; preds = %24
  %60 = add i32 %.08895, 3
  %61 = tail call zeroext i8 @tvb_get_uint8(ptr noundef %2, i32 noundef %60)
  %62 = load i32, ptr @hf_ecmp_data_type, align 4
  %63 = tail call ptr @proto_tree_add_item(ptr noundef null, i32 noundef %62, ptr noundef %2, i32 noundef %60, i32 noundef 1, i32 noundef 0)
  %64 = add i32 %.08895, 4
  %65 = tail call fastcc i32 @get_data_type(ptr noundef %0, i32 noundef %64, i8 noundef zeroext %61, ptr noundef %2, ptr noundef null)
  br label %77

66:                                               ; preds = %24
  %67 = add i32 %.08895, 3
  %68 = load i32, ptr @hf_ecmp_string_id, align 4
  %69 = tail call ptr @proto_tree_add_item(ptr noundef null, i32 noundef %68, ptr noundef %2, i32 noundef %67, i32 noundef 2, i32 noundef 0)
  %70 = add i32 %.08895, 4
  br label %77

71:                                               ; preds = %24
  %72 = add i32 %.08895, 3
  %73 = load i32, ptr @hf_ecmp_data_type, align 4
  %74 = tail call ptr @proto_tree_add_item(ptr noundef null, i32 noundef %73, ptr noundef %2, i32 noundef %72, i32 noundef 1, i32 noundef 0)
  br label %77

75:                                               ; preds = %24
  %76 = tail call ptr @expert_add_info(ptr noundef %0, ptr noundef %.09094, ptr noundef nonnull @ei_ecmp_info_type)
  br label %77

77:                                               ; preds = %36, %39, %44, %49, %52, %59, %66, %71, %75
  %.191 = phi ptr [ %.09094, %75 ], [ %74, %71 ], [ %.09094, %66 ], [ %63, %59 ], [ %56, %52 ], [ %.09094, %49 ], [ %.09094, %44 ], [ %.09094, %39 ], [ %.09094, %36 ]
  %.189 = phi i32 [ %32, %75 ], [ %72, %71 ], [ %70, %66 ], [ %65, %59 ], [ %58, %52 ], [ %51, %49 ], [ %48, %44 ], [ %43, %39 ], [ %32, %36 ]
  %exitcond.not = icmp eq i32 %28, %11
  br i1 %exitcond.not, label %.loopexit, label %18, !llvm.loop !22

.loopexit:                                        ; preds = %77, %14
  ret void
}